; Function Attrs: mustprogress uwtable
define dso_local void @_ZN3net14QuicConnection21OnSendConnectionStateERKNS_23CachedNetworkParametersE(ptr nocapture noundef nonnull readonly align 8 dereferenceable(3372) %this, ptr noundef nonnull align 8 dereferenceable(72) %cached_network_params) unnamed_addr #0 align 2 {
entry:
  %debug_visitor_ = getelementptr inbounds i8, ptr %this, i64 2400
  %0 = load ptr, ptr %debug_visitor_, align 8
  %cmp.not = icmp eq ptr %0, null
  br i1 %cmp.not, label %if.end, label %if.then

if.then:                                          ; preds = %entry
  %vtable = load ptr, ptr %0, align 8
  %vfn = getelementptr inbounds i8, ptr %vtable, i64 232
  %1 = load ptr, ptr %vfn, align 8
  tail call void %1(ptr noundef nonnull align 8 dereferenceable(8) %0, ptr noundef nonnull align 8 dereferenceable(72) %cached_network_params)
  br label %if.end

if.end:                                           ; preds = %if.then, %entry
  ret void
}